target datalayout = "e-m:e-p270:32:32-p271:32:32-p272:64:64-i64:64-i128:128-f80:128-n8:16:32:64-S128"
target triple = "x86_64-pc-linux-gnu"

@state_buffer_table = internal global ptr null, align 8

; Function Attrs: null_pointer_is_valid sspstrong uwtable
define internal void @udvm_state_create(ptr noundef %0, ptr noundef %1, i16 noundef zeroext %2) #0 {
  %4 = alloca ptr, align 8
  %5 = alloca ptr, align 8
  %6 = alloca i16, align 2
  %7 = alloca [20 x i8], align 16
  %8 = alloca i32, align 4
  %9 = alloca ptr, align 8
  %10 = alloca ptr, align 8
  store ptr %0, ptr %4, align 8
  store ptr %1, ptr %5, align 8
  store i16 %2, ptr %6, align 2
  call void @llvm.lifetime.start.p0(i64 20, ptr %7) #10
  call void @llvm.lifetime.start.p0(i64 4, ptr %8) #10
  call void @llvm.lifetime.start.p0(i64 8, ptr %9) #10
  call void @llvm.lifetime.start.p0(i64 8, ptr %10) #10
  store i32 0, ptr %8, align 4
  br label %11

11:                                               ; preds = %21, %3
  %12 = load i32, ptr %8, align 4
  %13 = load i16, ptr %6, align 2
  %14 = zext i16 %13 to i32
  %15 = icmp ult i32 %12, %14
  br i1 %15, label %16, label %19

16:                                               ; preds = %11
  %17 = load i32, ptr %8, align 4
  %18 = icmp ult i32 %17, 20
  br label %19

19:                                               ; preds = %16, %11
  %20 = phi i1 [ false, %11 ], [ %18, %16 ]
  br i1 %20, label %21, label %32

21:                                               ; preds = %19
  %22 = load ptr, ptr %5, align 8
  %23 = load i32, ptr %8, align 4
  %24 = zext i32 %23 to i64
  %25 = getelementptr i8, ptr %22, i64 %24
  %26 = load i8, ptr %25, align 1
  %27 = load i32, ptr %8, align 4
  %28 = zext i32 %27 to i64
  %29 = getelementptr [20 x i8], ptr %7, i64 0, i64 %28
  store i8 %26, ptr %29, align 1
  %30 = load i32, ptr %8, align 4
  %31 = add i32 %30, 1
  store i32 %31, ptr %8, align 4
  br label %11, !llvm.loop !38

32:                                               ; preds = %19
  %33 = getelementptr inbounds [20 x i8], ptr %7, i64 0, i64 0
  %34 = load i16, ptr %6, align 2
  %35 = zext i16 %34 to i64
  %36 = call ptr @bytes_to_str_maxlen(ptr noundef null, ptr noundef %33, i64 noundef %35, i64 noundef 36)
  store ptr %36, ptr %9, align 8
  %37 = load ptr, ptr @state_buffer_table, align 8
  %38 = load ptr, ptr %9, align 8
  %39 = call ptr @g_hash_table_lookup(ptr noundef %37, ptr noundef %38)
  store ptr %39, ptr %10, align 8
  %40 = load ptr, ptr %10, align 8
  %41 = icmp eq ptr %40, null
  br i1 %41, label %42, label %48

42:                                               ; preds = %32
  %43 = load ptr, ptr @state_buffer_table, align 8
  %44 = load ptr, ptr %9, align 8
  %45 = call noalias ptr @g_strdup(ptr noundef %44)
  %46 = load ptr, ptr %4, align 8
  %47 = call i32 @g_hash_table_insert(ptr noundef %43, ptr noundef %45, ptr noundef %46)
  br label %50

48:                                               ; preds = %32
  %49 = load ptr, ptr %4, align 8
  call void @g_free(ptr noundef %49)
  br label %50

50:                                               ; preds = %48, %42
  %51 = load ptr, ptr %9, align 8
  call void @wmem_free(ptr noundef null, ptr noundef %51)
  call void @llvm.lifetime.end.p0(i64 8, ptr %10) #10
  call void @llvm.lifetime.end.p0(i64 8, ptr %9) #10
  call void @llvm.lifetime.end.p0(i64 4, ptr %8) #10
  call void @llvm.lifetime.end.p0(i64 20, ptr %7) #10
  ret void
}