; Function Attrs: null_pointer_is_valid sspstrong uwtable
define internal fastcc void @udvm_state_create(ptr noundef %0, ptr noundef readonly captures(none) %1) unnamed_addr #0 {
  %3 = alloca [20 x i8], align 16
  call void @llvm.lifetime.start.p0(i64 20, ptr nonnull %3) #11
  call void @llvm.memcpy.p0.p0.i64(ptr noundef nonnull align 16 dereferenceable(6) %3, ptr noundef align 1 dereferenceable(6) %1, i64 6, i1 false)
  %4 = call ptr @bytes_to_str_maxlen(ptr noundef null, ptr noundef nonnull %3, i64 noundef 6, i64 noundef 36)
  %5 = load ptr, ptr @state_buffer_table, align 8
  %6 = call ptr @g_hash_table_lookup(ptr noundef %5, ptr noundef %4)
  %7 = icmp eq ptr %6, null
  br i1 %7, label %8, label %12

8:                                                ; preds = %2
  %9 = load ptr, ptr @state_buffer_table, align 8
  %10 = call noalias ptr @g_strdup(ptr noundef %4)
  %11 = call i32 @g_hash_table_insert(ptr noundef %9, ptr noundef %10, ptr noundef %0)
  br label %13

12:                                               ; preds = %2
  call void @g_free(ptr noundef %0)
  br label %13

13:                                               ; preds = %12, %8
  call void @wmem_free(ptr noundef null, ptr noundef %4)
  call void @llvm.lifetime.end.p0(i64 20, ptr nonnull %3) #11
  ret void
}